(dp1
S'registro'
p2
(dp3
S'type'
p4
S'datetime'
p5
sS'sortable'
p6
I2
sS'sql'
p7
S'DATETIME'
p8
ssS'forma_pago'
p9
(dp10
g4
S'string'
p11
sg6
I3
sg7
S'VARCHAR(255)'
p12
ssS'posicion'
p13
(dp14
g4
S'integer'
p15
sg6
I5
sg7
S'INT'
p16
ssS'nombre'
p17
(dp18
g4
g11
sg6
I4
sg7
S'VARCHAR(255)'
p19
ssS'id'
p20
(dp21
g4
g20
sg6
I1
sg7
S'INT AUTO_INCREMENT NOT NULL'
p22
ssS'modo'
p23
(dp24
g4
g15
sg6
I6
sg7
S'INT'
p25
ss.