(dp1
S'tiempo'
p2
(dp3
S'type'
p4
S'datetime'
p5
sS'sortable'
p6
I3
sS'sql'
p7
S'DATETIME'
p8
ssS'registro'
p9
(dp10
g4
g5
sg6
I2
sg7
S'DATETIME'
p11
ssS'id'
p12
(dp13
g4
g12
sg6
I1
sg7
S'INT AUTO_INCREMENT NOT NULL'
p14
ssS'log'
p15
(dp16
g4
S'string'
p17
sg6
I4
sg7
S'VARCHAR(255)'
p18
ss.