(dp1
S'codigo'
p2
(dp3
S'type'
p4
S'string'
p5
sS'sortable'
p6
I3
sS'sql'
p7
S'VARCHAR(255) NOT NULL'
p8
ssS'entidad'
p9
(dp10
g4
g5
sg6
I4
sg7
S'VARCHAR(255) NOT NULL'
p11
ssS'registro'
p12
(dp13
g4
S'datetime'
p14
sg6
I2
sg7
S'DATETIME NOT NULL'
p15
ssS'moneda'
p16
(dp17
g4
S'reference monedas'
p18
sg6
I5
sg7
S'INT, INDEX moneda__idx (moneda), FOREIGN KEY (moneda) REFERENCES monedas(id) ON DELETE CASCADE'
p19
ssS'id'
p20
(dp21
g4
g20
sg6
I1
sg7
S'INT AUTO_INCREMENT NOT NULL'
p22
ss.