(dp1
S'nombre'
p2
(dp3
S'sortable'
p4
I3
sS'type'
p5
S'string'
p6
sS'sql'
p7
S'VARCHAR(255)'
p8
ssS'registro'
p9
(dp10
g4
I2
sg5
S'datetime'
p11
sg7
S'DATETIME'
p12
ssS'id'
p13
(dp14
g4
I1
sg5
S'id'
p15
sg7
S'INT AUTO_INCREMENT NOT NULL'
p16
ssS'longitud'
p17
(dp18
S'type'
p19
S'integer'
p20
sS'sortable'
p21
I4
sS'sql'
p22
S'INT'
p23
ss.