(dp1
S'registro'
p2
(dp3
S'type'
p4
S'datetime'
p5
sS'sortable'
p6
I2
sS'sql'
p7
S'DATETIME'
p8
ssS'forma_pago'
p9
(dp10
g4
S'string'
p11
sg6
I3
sg7
S'VARCHAR(255)'
p12
ssS'posicion'
p13
(dp14
S'sortable'
p15
I5
sS'type'
p16
S'integer'
p17
sS'sql'
p18
S'INT'
p19
ssS'nombre'
p20
(dp21
g4
g11
sg6
I4
sg7
S'VARCHAR(255)'
p22
ssS'id'
p23
(dp24
g4
S'id'
p25
sg6
I1
sg7
S'INT AUTO_INCREMENT NOT NULL'
p26
ssS'modo'
p27
(dp28
S'type'
p29
S'integer'
p30
sS'sortable'
p31
I6
sS'sql'
p32
S'INT'
p33
ss.