(dp1
S'descripcion'
p2
(dp3
S'type'
p4
S'string'
p5
sS'sortable'
p6
I4
sS'sql'
p7
S'VARCHAR(255) NOT NULL'
p8
ssS'modo'
p9
(dp10
g4
S'integer'
p11
sg6
I3
sg7
S'INT NOT NULL'
p12
ssS'modo_tabla'
p13
(dp14
g4
g11
sg6
I5
sg7
S'INT NOT NULL'
p15
ssS'id'
p16
(dp17
g4
g16
sg6
I1
sg7
S'INT AUTO_INCREMENT NOT NULL'
p18
ssS'tabla'
p19
(dp20
g4
g5
sg6
I2
sg7
S'VARCHAR(255) NOT NULL'
p21
ss.