(dp1
S'posicion'
p2
(dp3
S'type'
p4
S'integer'
p5
sS'sortable'
p6
I5
sS'sql'
p7
S'INT NOT NULL'
p8
ssS'nombre'
p9
(dp10
g4
S'string'
p11
sg6
I4
sg7
S'VARCHAR(255) NOT NULL'
p12
ssS'registro'
p13
(dp14
g4
S'datetime'
p15
sg6
I2
sg7
S'DATETIME NOT NULL'
p16
ssS'id'
p17
(dp18
g4
g17
sg6
I1
sg7
S'INT AUTO_INCREMENT NOT NULL'
p19
ssS'empaque'
p20
(dp21
g4
g11
sg6
I3
sg7
S'VARCHAR(255) NOT NULL'
p22
ss.