(dp1
S'peso_tara'
p2
(dp3
S'type'
p4
S'double'
p5
sS'sortable'
p6
I5
sS'sql'
p7
S'DOUBLE NOT NULL'
p8
ssS'registro'
p9
(dp10
g4
S'datetime'
p11
sg6
I2
sg7
S'DATETIME NOT NULL'
p12
ssS'codbarras'
p13
(dp14
g4
S'reference maestro'
p15
sg6
I3
sg7
S'INT, INDEX codbarras__idx (codbarras), FOREIGN KEY (codbarras) REFERENCES maestro(id) ON DELETE CASCADE'
p16
ssS'id'
p17
(dp18
g4
g17
sg6
I1
sg7
S'INT AUTO_INCREMENT NOT NULL'
p19
ssS'peso_neto'
p20
(dp21
g4
g5
sg6
I4
sg7
S'DOUBLE NOT NULL'
p22
ss.