(dp1
S'pv_padre'
p2
(dp3
S'type'
p4
S'string'
p5
sS'sortable'
p6
I3
sS'sql'
p7
S'VARCHAR(255) NOT NULL'
p8
ssS'pv_hijo'
p9
(dp10
g4
g5
sg6
I4
sg7
S'VARCHAR(255) NOT NULL'
p11
ssS'registro'
p12
(dp13
g4
S'datetime'
p14
sg6
I2
sg7
S'DATETIME NOT NULL'
p15
ssS'id'
p16
(dp17
g4
g16
sg6
I1
sg7
S'INT AUTO_INCREMENT NOT NULL'
p18
ssS'modo'
p19
(dp20
g4
S'integer'
p21
sg6
I5
sg7
S'INT NOT NULL'
p22
ss.