(dp1
S'ubicacion'
p2
(dp3
S'type'
p4
S'string'
p5
sS'sortable'
p6
I5
sS'sql'
p7
S'VARCHAR(255)'
p8
ssS'registro'
p9
(dp10
g4
S'datetime'
p11
sg6
I2
sg7
S'DATETIME'
p12
ssS'codbarras'
p13
(dp14
g4
g5
sg6
I4
sg7
S'VARCHAR(255)'
p15
ssS'id'
p16
(dp17
g4
g16
sg6
I1
sg7
S'INT AUTO_INCREMENT NOT NULL'
p18
ssS'almacen'
p19
(dp20
g4
S'reference almacenes_lista'
p21
sg6
I3
sg7
S'INT, INDEX almacen__idx (almacen), FOREIGN KEY (almacen) REFERENCES almacenes_lista(id) ON DELETE CASCADE'
p22
ss.