(dp1
S'orden'
p2
(dp3
S'type'
p4
S'integer'
p5
sS'sortable'
p6
I7
sS'sql'
p7
S'INT'
p8
ssS'registro'
p9
(dp10
g4
S'datetime'
p11
sg6
I2
sg7
S'DATETIME'
p12
ssS'nombre'
p13
(dp14
g4
S'string'
p15
sg6
I5
sg7
S'VARCHAR(255)'
p16
ssS'codigo'
p17
(dp18
g4
g15
sg6
I4
sg7
S'VARCHAR(255)'
p19
ssS'simbolo'
p20
(dp21
g4
g15
sg6
I6
sg7
S'VARCHAR(255)'
p22
ssS'id'
p23
(dp24
g4
g23
sg6
I1
sg7
S'INT AUTO_INCREMENT NOT NULL'
p25
ssS'modo'
p26
(dp27
g4
g5
sg6
I3
sg7
S'INT'
p28
ss.